; ModuleID = '9/537.c'
source_filename = "9/537.c"
target datalayout = "e-m:e-p270:32:32-p271:32:32-p272:64:64-i64:64-f80:128-n8:16:32:64-S128"
target triple = "x86_64-pc-linux-gnu"

@.str = private unnamed_addr constant [3 x i8] c"%d\00", align 1
@.str.1 = private unnamed_addr constant [5 x i8] c"%s%d\00", align 1
@.str.2 = private unnamed_addr constant [4 x i8] c"%s\0A\00", align 1

; Function Attrs: noinline nounwind uwtable
define dso_local i32 @main() #0 {
  %1 = alloca i32, align 4
  %2 = alloca i32, align 4
  %3 = alloca i8*, align 8
  %4 = alloca i64, align 8
  %5 = alloca i64, align 8
  %6 = alloca i32, align 4
  %7 = alloca i32, align 4
  %8 = alloca i64, align 8
  %9 = alloca i64, align 8
  %10 = alloca i32, align 4
  store i32 0, i32* %1, align 4
  %11 = call i32 (i8*, ...) @__isoc99_scanf(i8* getelementptr inbounds ([3 x i8], [3 x i8]* @.str, i64 0, i64 0), i32* %2)
  %12 = load i32, i32* %2, align 4
  %13 = zext i32 %12 to i64
  %14 = call i8* @llvm.stacksave()
  store i8* %14, i8** %3, align 8
  %15 = alloca [100 x i8], i64 %13, align 16
  store i64 %13, i64* %4, align 8
  %16 = load i32, i32* %2, align 4
  %17 = zext i32 %16 to i64
  %18 = alloca i32, i64 %17, align 16
  store i64 %17, i64* %5, align 8
  %19 = load i32, i32* %2, align 4
  %20 = zext i32 %19 to i64
  %21 = alloca i32, i64 %20, align 16
  store i64 %20, i64* %8, align 8
  %22 = load i32, i32* %2, align 4
  %23 = zext i32 %22 to i64
  %24 = alloca i32, i64 %23, align 16
  store i64 %23, i64* %9, align 8
  store i32 0, i32* %6, align 4
  br label %25

25:                                               ; preds = %38, %0
  %26 = load i32, i32* %6, align 4
  %27 = load i32, i32* %2, align 4
  %28 = icmp slt i32 %26, %27
  br i1 %28, label %29, label %41

29:                                               ; preds = %25
  %30 = load i32, i32* %6, align 4
  %31 = sext i32 %30 to i64
  %32 = getelementptr inbounds [100 x i8], [100 x i8]* %15, i64 %31
  %33 = getelementptr inbounds [100 x i8], [100 x i8]* %32, i64 0, i64 0
  %34 = load i32, i32* %6, align 4
  %35 = sext i32 %34 to i64
  %36 = getelementptr inbounds i32, i32* %18, i64 %35
  %37 = call i32 (i8*, ...) @__isoc99_scanf(i8* getelementptr inbounds ([5 x i8], [5 x i8]* @.str.1, i64 0, i64 0), i8* %33, i32* %36)
  br label %38

38:                                               ; preds = %29
  %39 = load i32, i32* %6, align 4
  %40 = add nsw i32 %39, 1
  store i32 %40, i32* %6, align 4
  br label %25

41:                                               ; preds = %25
  store i32 0, i32* %6, align 4
  br label %42

42:                                               ; preds = %138, %41
  %43 = load i32, i32* %6, align 4
  %44 = load i32, i32* %2, align 4
  %45 = icmp slt i32 %43, %44
  br i1 %45, label %46, label %141

46:                                               ; preds = %42
  %47 = load i32, i32* %6, align 4
  %48 = sext i32 %47 to i64
  %49 = getelementptr inbounds i32, i32* %21, i64 %48
  store i32 0, i32* %49, align 4
  %50 = load i32, i32* %2, align 4
  %51 = load i32, i32* %6, align 4
  %52 = sext i32 %51 to i64
  %53 = getelementptr inbounds i32, i32* %24, i64 %52
  store i32 %50, i32* %53, align 4
  store i32 0, i32* %7, align 4
  br label %54

54:                                               ; preds = %109, %46
  %55 = load i32, i32* %7, align 4
  %56 = load i32, i32* %2, align 4
  %57 = icmp slt i32 %55, %56
  br i1 %57, label %58, label %112

58:                                               ; preds = %54
  %59 = load i32, i32* %7, align 4
  %60 = sext i32 %59 to i64
  %61 = getelementptr inbounds i32, i32* %18, i64 %60
  %62 = load i32, i32* %61, align 4
  %63 = icmp sge i32 %62, 60
  br i1 %63, label %64, label %108

64:                                               ; preds = %58
  %65 = load i32, i32* %7, align 4
  %66 = sext i32 %65 to i64
  %67 = getelementptr inbounds i32, i32* %18, i64 %66
  %68 = load i32, i32* %67, align 4
  %69 = load i32, i32* %6, align 4
  %70 = sext i32 %69 to i64
  %71 = getelementptr inbounds i32, i32* %21, i64 %70
  %72 = load i32, i32* %71, align 4
  %73 = icmp sgt i32 %68, %72
  br i1 %73, label %74, label %108

74:                                               ; preds = %64
  store i32 0, i32* %10, align 4
  br label %75

75:                                               ; preds = %88, %74
  %76 = load i32, i32* %10, align 4
  %77 = load i32, i32* %6, align 4
  %78 = icmp slt i32 %76, %77
  br i1 %78, label %79, label %91

79:                                               ; preds = %75
  %80 = load i32, i32* %7, align 4
  %81 = load i32, i32* %10, align 4
  %82 = sext i32 %81 to i64
  %83 = getelementptr inbounds i32, i32* %24, i64 %82
  %84 = load i32, i32* %83, align 4
  %85 = icmp eq i32 %80, %84
  br i1 %85, label %86, label %87

86:                                               ; preds = %79
  br label %91

87:                                               ; preds = %79
  br label %88

88:                                               ; preds = %87
  %89 = load i32, i32* %10, align 4
  %90 = add nsw i32 %89, 1
  store i32 %90, i32* %10, align 4
  br label %75

91:                                               ; preds = %86, %75
  %92 = load i32, i32* %10, align 4
  %93 = load i32, i32* %6, align 4
  %94 = icmp eq i32 %92, %93
  br i1 %94, label %95, label %107

95:                                               ; preds = %91
  %96 = load i32, i32* %7, align 4
  %97 = sext i32 %96 to i64
  %98 = getelementptr inbounds i32, i32* %18, i64 %97
  %99 = load i32, i32* %98, align 4
  %100 = load i32, i32* %6, align 4
  %101 = sext i32 %100 to i64
  %102 = getelementptr inbounds i32, i32* %21, i64 %101
  store i32 %99, i32* %102, align 4
  %103 = load i32, i32* %7, align 4
  %104 = load i32, i32* %6, align 4
  %105 = sext i32 %104 to i64
  %106 = getelementptr inbounds i32, i32* %24, i64 %105
  store i32 %103, i32* %106, align 4
  br label %107

107:                                              ; preds = %95, %91
  br label %108

108:                                              ; preds = %107, %64, %58
  br label %109

109:                                              ; preds = %108
  %110 = load i32, i32* %7, align 4
  %111 = add nsw i32 %110, 1
  store i32 %111, i32* %7, align 4
  br label %54

112:                                              ; preds = %54
  %113 = load i32, i32* %6, align 4
  %114 = sext i32 %113 to i64
  %115 = getelementptr inbounds i32, i32* %24, i64 %114
  %116 = load i32, i32* %115, align 4
  %117 = load i32, i32* %2, align 4
  %118 = icmp ne i32 %116, %117
  br i1 %118, label %119, label %137

119:                                              ; preds = %112
  %120 = load i32, i32* %6, align 4
  %121 = sext i32 %120 to i64
  %122 = getelementptr inbounds i32, i32* %24, i64 %121
  %123 = load i32, i32* %122, align 4
  %124 = sext i32 %123 to i64
  %125 = getelementptr inbounds i32, i32* %18, i64 %124
  %126 = load i32, i32* %125, align 4
  %127 = icmp sge i32 %126, 60
  br i1 %127, label %128, label %137

128:                                              ; preds = %119
  %129 = load i32, i32* %6, align 4
  %130 = sext i32 %129 to i64
  %131 = getelementptr inbounds i32, i32* %24, i64 %130
  %132 = load i32, i32* %131, align 4
  %133 = sext i32 %132 to i64
  %134 = getelementptr inbounds [100 x i8], [100 x i8]* %15, i64 %133
  %135 = getelementptr inbounds [100 x i8], [100 x i8]* %134, i64 0, i64 0
  %136 = call i32 (i8*, ...) @printf(i8* getelementptr inbounds ([4 x i8], [4 x i8]* @.str.2, i64 0, i64 0), i8* %135)
  br label %137

137:                                              ; preds = %128, %119, %112
  br label %138

138:                                              ; preds = %137
  %139 = load i32, i32* %6, align 4
  %140 = add nsw i32 %139, 1
  store i32 %140, i32* %6, align 4
  br label %42

141:                                              ; preds = %42
  store i32 0, i32* %6, align 4
  br label %142

142:                                              ; preds = %159, %141
  %143 = load i32, i32* %6, align 4
  %144 = load i32, i32* %2, align 4
  %145 = icmp slt i32 %143, %144
  br i1 %145, label %146, label %162

146:                                              ; preds = %142
  %147 = load i32, i32* %6, align 4
  %148 = sext i32 %147 to i64
  %149 = getelementptr inbounds i32, i32* %18, i64 %148
  %150 = load i32, i32* %149, align 4
  %151 = icmp slt i32 %150, 60
  br i1 %151, label %152, label %158

152:                                              ; preds = %146
  %153 = load i32, i32* %6, align 4
  %154 = sext i32 %153 to i64
  %155 = getelementptr inbounds [100 x i8], [100 x i8]* %15, i64 %154
  %156 = getelementptr inbounds [100 x i8], [100 x i8]* %155, i64 0, i64 0
  %157 = call i32 (i8*, ...) @printf(i8* getelementptr inbounds ([4 x i8], [4 x i8]* @.str.2, i64 0, i64 0), i8* %156)
  br label %158

158:                                              ; preds = %152, %146
  br label %159

159:                                              ; preds = %158
  %160 = load i32, i32* %6, align 4
  %161 = add nsw i32 %160, 1
  store i32 %161, i32* %6, align 4
  br label %142

162:                                              ; preds = %142
  %163 = call i32 @getchar()
  %164 = call i32 @getchar()
  %165 = load i8*, i8** %3, align 8
  call void @llvm.stackrestore(i8* %165)
  %166 = load i32, i32* %1, align 4
  ret i32 %166
}

declare dso_local i32 @__isoc99_scanf(i8*, ...) #1

; Function Attrs: nounwind
declare i8* @llvm.stacksave() #2

declare dso_local i32 @printf(i8*, ...) #1

declare dso_local i32 @getchar() #1

; Function Attrs: nounwind
declare void @llvm.stackrestore(i8*) #2


!llvm.module.flags = !{!0}
!llvm.ident = !{!1}

!0 = !{i32 1, !"wchar_size", i32 4}
!1 = !{!"clang version 10.0.0-4ubuntu1 "}
